target datalayout = "e-m:e-p270:32:32-p271:32:32-p272:64:64-i64:64-i128:128-f80:128-n8:16:32:64-S128"
target triple = "x86_64-pc-linux-gnu"

@Truth6 = internal global [6 x i64] [i64 -6148914691236517206, i64 -3689348814741910324, i64 -1085102592571150096, i64 -71777214294589696, i64 -281470681808896, i64 -4294967296], align 16

; Function Attrs: inlinehint nounwind uwtable
define internal i32 @If_CluCountOnes(i64 noundef %0) #3 {
  %2 = alloca i64, align 8
  store i64 %0, ptr %2, align 8, !tbaa !79
  %3 = load i64, ptr %2, align 8, !tbaa !79
  %4 = and i64 %3, 6148914691236517205
  %5 = load i64, ptr %2, align 8, !tbaa !79
  %6 = lshr i64 %5, 1
  %7 = and i64 %6, 6148914691236517205
  %8 = add i64 %4, %7
  store i64 %8, ptr %2, align 8, !tbaa !79
  %9 = load i64, ptr %2, align 8, !tbaa !79
  %10 = and i64 %9, 3689348814741910323
  %11 = load i64, ptr %2, align 8, !tbaa !79
  %12 = lshr i64 %11, 2
  %13 = and i64 %12, 3689348814741910323
  %14 = add i64 %10, %13
  store i64 %14, ptr %2, align 8, !tbaa !79
  %15 = load i64, ptr %2, align 8, !tbaa !79
  %16 = and i64 %15, 1085102592571150095
  %17 = load i64, ptr %2, align 8, !tbaa !79
  %18 = lshr i64 %17, 4
  %19 = and i64 %18, 1085102592571150095
  %20 = add i64 %16, %19
  store i64 %20, ptr %2, align 8, !tbaa !79
  %21 = load i64, ptr %2, align 8, !tbaa !79
  %22 = and i64 %21, 71777214294589695
  %23 = load i64, ptr %2, align 8, !tbaa !79
  %24 = lshr i64 %23, 8
  %25 = and i64 %24, 71777214294589695
  %26 = add i64 %22, %25
  store i64 %26, ptr %2, align 8, !tbaa !79
  %27 = load i64, ptr %2, align 8, !tbaa !79
  %28 = and i64 %27, 281470681808895
  %29 = load i64, ptr %2, align 8, !tbaa !79
  %30 = lshr i64 %29, 16
  %31 = and i64 %30, 281470681808895
  %32 = add i64 %28, %31
  store i64 %32, ptr %2, align 8, !tbaa !79
  %33 = load i64, ptr %2, align 8, !tbaa !79
  %34 = and i64 %33, 4294967295
  %35 = load i64, ptr %2, align 8, !tbaa !79
  %36 = lshr i64 %35, 32
  %37 = add i64 %34, %36
  %38 = trunc i64 %37 to i32
  ret i32 %38
}

; Function Attrs: inlinehint nounwind uwtable
define internal i32 @Abc_MinInt(i32 noundef %0, i32 noundef %1) #3 {
  %3 = alloca i32, align 4
  %4 = alloca i32, align 4
  store i32 %0, ptr %3, align 4, !tbaa !3
  store i32 %1, ptr %4, align 4, !tbaa !3
  %5 = load i32, ptr %3, align 4, !tbaa !3
  %6 = load i32, ptr %4, align 4, !tbaa !3
  %7 = icmp slt i32 %5, %6
  br i1 %7, label %8, label %10

8:                                                ; preds = %2
  %9 = load i32, ptr %3, align 4, !tbaa !3
  br label %12

10:                                               ; preds = %2
  %11 = load i32, ptr %4, align 4, !tbaa !3
  br label %12

12:                                               ; preds = %10, %8
  %13 = phi i32 [ %9, %8 ], [ %11, %10 ]
  ret i32 %13
}

; Function Attrs: inlinehint nounwind uwtable
define internal i32 @If_CluWordNum(i32 noundef %0) #3 {
  %2 = alloca i32, align 4
  store i32 %0, ptr %2, align 4, !tbaa !3
  %3 = load i32, ptr %2, align 4, !tbaa !3
  %4 = icmp sle i32 %3, 6
  br i1 %4, label %5, label %6

5:                                                ; preds = %1
  br label %10

6:                                                ; preds = %1
  %7 = load i32, ptr %2, align 4, !tbaa !3
  %8 = sub nsw i32 %7, 6
  %9 = shl i32 1, %8
  br label %10

10:                                               ; preds = %6, %5
  %11 = phi i32 [ 1, %5 ], [ %9, %6 ]
  ret i32 %11
}

; Function Attrs: nounwind uwtable
define void @If_CluCountOnesInCofs(ptr noundef %0, i32 noundef %1, ptr noundef %2) #0 {
  %4 = alloca ptr, align 8
  %5 = alloca i32, align 4
  %6 = alloca ptr, align 8
  %7 = alloca i32, align 4
  %8 = alloca i32, align 4
  %9 = alloca i32, align 4
  %10 = alloca i32, align 4
  %11 = alloca i32, align 4
  store ptr %0, ptr %4, align 8, !tbaa !51
  store i32 %1, ptr %5, align 4, !tbaa !3
  store ptr %2, ptr %6, align 8, !tbaa !21
  call void @llvm.lifetime.start.p0(i64 4, ptr %7) #11
  %12 = load i32, ptr %5, align 4, !tbaa !3
  %13 = call i32 @If_CluWordNum(i32 noundef %12)
  store i32 %13, ptr %7, align 4, !tbaa !3
  call void @llvm.lifetime.start.p0(i64 4, ptr %8) #11
  call void @llvm.lifetime.start.p0(i64 4, ptr %9) #11
  call void @llvm.lifetime.start.p0(i64 4, ptr %10) #11
  store i32 0, ptr %10, align 4, !tbaa !3
  call void @llvm.lifetime.start.p0(i64 4, ptr %11) #11
  %14 = load i32, ptr %5, align 4, !tbaa !3
  %15 = call i32 @Abc_MinInt(i32 noundef %14, i32 noundef 6)
  store i32 %15, ptr %11, align 4, !tbaa !3
  %16 = load ptr, ptr %6, align 8, !tbaa !21
  %17 = load i32, ptr %5, align 4, !tbaa !3
  %18 = sext i32 %17 to i64
  %19 = mul i64 8, %18
  call void @llvm.memset.p0.i64(ptr align 4 %16, i8 0, i64 %19, i1 false)
  store i32 0, ptr %9, align 4, !tbaa !3
  br label %20

20:                                               ; preds = %53, %3
  %21 = load i32, ptr %9, align 4, !tbaa !3
  %22 = load i32, ptr %7, align 4, !tbaa !3
  %23 = icmp slt i32 %21, %22
  br i1 %23, label %24, label %56

24:                                               ; preds = %20
  store i32 0, ptr %8, align 4, !tbaa !3
  br label %25

25:                                               ; preds = %49, %24
  %26 = load i32, ptr %8, align 4, !tbaa !3
  %27 = load i32, ptr %11, align 4, !tbaa !3
  %28 = icmp slt i32 %26, %27
  br i1 %28, label %29, label %52

29:                                               ; preds = %25
  %30 = load ptr, ptr %4, align 8, !tbaa !51
  %31 = load i32, ptr %9, align 4, !tbaa !3
  %32 = sext i32 %31 to i64
  %33 = getelementptr inbounds i64, ptr %30, i64 %32
  %34 = load i64, ptr %33, align 8, !tbaa !79
  %35 = load i32, ptr %8, align 4, !tbaa !3
  %36 = sext i32 %35 to i64
  %37 = getelementptr inbounds [6 x i64], ptr @Truth6, i64 0, i64 %36
  %38 = load i64, ptr %37, align 8, !tbaa !79
  %39 = and i64 %34, %38
  %40 = call i32 @If_CluCountOnes(i64 noundef %39)
  %41 = load ptr, ptr %6, align 8, !tbaa !21
  %42 = load i32, ptr %8, align 4, !tbaa !3
  %43 = mul nsw i32 2, %42
  %44 = add nsw i32 %43, 1
  %45 = sext i32 %44 to i64
  %46 = getelementptr inbounds i32, ptr %41, i64 %45
  %47 = load i32, ptr %46, align 4, !tbaa !3
  %48 = add nsw i32 %47, %40
  store i32 %48, ptr %46, align 4, !tbaa !3
  br label %49

49:                                               ; preds = %29
  %50 = load i32, ptr %8, align 4, !tbaa !3
  %51 = add nsw i32 %50, 1
  store i32 %51, ptr %8, align 4, !tbaa !3
  br label %25, !llvm.loop !84

52:                                               ; preds = %25
  br label %53

53:                                               ; preds = %52
  %54 = load i32, ptr %9, align 4, !tbaa !3
  %55 = add nsw i32 %54, 1
  store i32 %55, ptr %9, align 4, !tbaa !3
  br label %20, !llvm.loop !85

56:                                               ; preds = %20
  %57 = load i32, ptr %5, align 4, !tbaa !3
  %58 = icmp sgt i32 %57, 6
  br i1 %58, label %59, label %100

59:                                               ; preds = %56
  store i32 0, ptr %9, align 4, !tbaa !3
  br label %60

60:                                               ; preds = %96, %59
  %61 = load i32, ptr %9, align 4, !tbaa !3
  %62 = load i32, ptr %7, align 4, !tbaa !3
  %63 = icmp slt i32 %61, %62
  br i1 %63, label %64, label %99

64:                                               ; preds = %60
  store i32 6, ptr %8, align 4, !tbaa !3
  br label %65

65:                                               ; preds = %92, %64
  %66 = load i32, ptr %8, align 4, !tbaa !3
  %67 = load i32, ptr %5, align 4, !tbaa !3
  %68 = icmp slt i32 %66, %67
  br i1 %68, label %69, label %95

69:                                               ; preds = %65
  %70 = load i32, ptr %9, align 4, !tbaa !3
  %71 = load i32, ptr %8, align 4, !tbaa !3
  %72 = sub nsw i32 %71, 6
  %73 = shl i32 1, %72
  %74 = and i32 %70, %73
  %75 = icmp ne i32 %74, 0
  br i1 %75, label %76, label %91

76:                                               ; preds = %69
  %77 = load ptr, ptr %4, align 8, !tbaa !51
  %78 = load i32, ptr %9, align 4, !tbaa !3
  %79 = sext i32 %78 to i64
  %80 = getelementptr inbounds i64, ptr %77, i64 %79
  %81 = load i64, ptr %80, align 8, !tbaa !79
  %82 = call i32 @If_CluCountOnes(i64 noundef %81)
  %83 = load ptr, ptr %6, align 8, !tbaa !21
  %84 = load i32, ptr %8, align 4, !tbaa !3
  %85 = mul nsw i32 2, %84
  %86 = add nsw i32 %85, 1
  %87 = sext i32 %86 to i64
  %88 = getelementptr inbounds i32, ptr %83, i64 %87
  %89 = load i32, ptr %88, align 4, !tbaa !3
  %90 = add nsw i32 %89, %82
  store i32 %90, ptr %88, align 4, !tbaa !3
  br label %91

91:                                               ; preds = %76, %69
  br label %92

92:                                               ; preds = %91
  %93 = load i32, ptr %8, align 4, !tbaa !3
  %94 = add nsw i32 %93, 1
  store i32 %94, ptr %8, align 4, !tbaa !3
  br label %65, !llvm.loop !86

95:                                               ; preds = %65
  br label %96

96:                                               ; preds = %95
  %97 = load i32, ptr %9, align 4, !tbaa !3
  %98 = add nsw i32 %97, 1
  store i32 %98, ptr %9, align 4, !tbaa !3
  br label %60, !llvm.loop !87

99:                                               ; preds = %60
  br label %100

100:                                              ; preds = %99, %56
  store i32 0, ptr %9, align 4, !tbaa !3
  br label %101

101:                                              ; preds = %114, %100
  %102 = load i32, ptr %9, align 4, !tbaa !3
  %103 = load i32, ptr %7, align 4, !tbaa !3
  %104 = icmp slt i32 %102, %103
  br i1 %104, label %105, label %117

105:                                              ; preds = %101
  %106 = load ptr, ptr %4, align 8, !tbaa !51
  %107 = load i32, ptr %9, align 4, !tbaa !3
  %108 = sext i32 %107 to i64
  %109 = getelementptr inbounds i64, ptr %106, i64 %108
  %110 = load i64, ptr %109, align 8, !tbaa !79
  %111 = call i32 @If_CluCountOnes(i64 noundef %110)
  %112 = load i32, ptr %10, align 4, !tbaa !3
  %113 = add nsw i32 %112, %111
  store i32 %113, ptr %10, align 4, !tbaa !3
  br label %114

114:                                              ; preds = %105
  %115 = load i32, ptr %9, align 4, !tbaa !3
  %116 = add nsw i32 %115, 1
  store i32 %116, ptr %9, align 4, !tbaa !3
  br label %101, !llvm.loop !88

117:                                              ; preds = %101
  store i32 0, ptr %8, align 4, !tbaa !3
  br label %118

118:                                              ; preds = %137, %117
  %119 = load i32, ptr %8, align 4, !tbaa !3
  %120 = load i32, ptr %5, align 4, !tbaa !3
  %121 = icmp slt i32 %119, %120
  br i1 %121, label %122, label %140

122:                                              ; preds = %118
  %123 = load i32, ptr %10, align 4, !tbaa !3
  %124 = load ptr, ptr %6, align 8, !tbaa !21
  %125 = load i32, ptr %8, align 4, !tbaa !3
  %126 = mul nsw i32 2, %125
  %127 = add nsw i32 %126, 1
  %128 = sext i32 %127 to i64
  %129 = getelementptr inbounds i32, ptr %124, i64 %128
  %130 = load i32, ptr %129, align 4, !tbaa !3
  %131 = sub nsw i32 %123, %130
  %132 = load ptr, ptr %6, align 8, !tbaa !21
  %133 = load i32, ptr %8, align 4, !tbaa !3
  %134 = mul nsw i32 2, %133
  %135 = sext i32 %134 to i64
  %136 = getelementptr inbounds i32, ptr %132, i64 %135
  store i32 %131, ptr %136, align 4, !tbaa !3
  br label %137

137:                                              ; preds = %122
  %138 = load i32, ptr %8, align 4, !tbaa !3
  %139 = add nsw i32 %138, 1
  store i32 %139, ptr %8, align 4, !tbaa !3
  br label %118, !llvm.loop !89

140:                                              ; preds = %118
  call void @llvm.lifetime.end.p0(i64 4, ptr %11) #11
  call void @llvm.lifetime.end.p0(i64 4, ptr %10) #11
  call void @llvm.lifetime.end.p0(i64 4, ptr %9) #11
  call void @llvm.lifetime.end.p0(i64 4, ptr %8) #11
  call void @llvm.lifetime.end.p0(i64 4, ptr %7) #11
  ret void
}